; Function Attrs: nounwind uwtable
define internal fastcc noundef ptr @set_hook(ptr noundef %0, ptr noundef captures(none) %1, ptr noundef %2) unnamed_addr #0 {
  %4 = icmp eq ptr %2, @_Py_NoneStruct
  br i1 %4, label %5, label %13

5:                                                ; preds = %3
  %6 = load ptr, ptr %1, align 8, !tbaa !41
  %.not16 = icmp eq ptr %6, null
  br i1 %.not16, label %Py_DECREF.exit, label %7

7:                                                ; preds = %5
  store ptr null, ptr %1, align 8, !tbaa !41
  %8 = load i32, ptr %6, align 8, !tbaa !25
  %.not.i = icmp sgt i32 %8, -1
  br i1 %.not.i, label %9, label %Py_DECREF.exit

9:                                                ; preds = %7
  %10 = add nsw i32 %8, -1
  store i32 %10, ptr %6, align 8, !tbaa !25
  %11 = icmp eq i32 %10, 0
  br i1 %11, label %12, label %Py_DECREF.exit

12:                                               ; preds = %9
  tail call void @_Py_Dealloc(ptr noundef nonnull %6) #14
  br label %Py_DECREF.exit

13:                                               ; preds = %3
  %14 = tail call i32 @PyCallable_Check(ptr noundef %2) #14
  %.not = icmp eq i32 %14, 0
  br i1 %.not, label %27, label %15

15:                                               ; preds = %13
  %16 = load ptr, ptr %1, align 8, !tbaa !41
  %17 = load i32, ptr %2, align 8, !tbaa !25
  %18 = icmp slt i32 %17, 0
  br i1 %18, label %_Py_NewRef.exit, label %19

19:                                               ; preds = %15
  %20 = add nuw i32 %17, 1
  store i32 %20, ptr %2, align 8, !tbaa !25
  br label %_Py_NewRef.exit

_Py_NewRef.exit:                                  ; preds = %15, %19
  store ptr %2, ptr %1, align 8, !tbaa !41
  %.not.i17 = icmp eq ptr %16, null
  br i1 %.not.i17, label %Py_DECREF.exit, label %21

21:                                               ; preds = %_Py_NewRef.exit
  %22 = load i32, ptr %16, align 8, !tbaa !25
  %.not.i.i = icmp sgt i32 %22, -1
  br i1 %.not.i.i, label %23, label %Py_DECREF.exit

23:                                               ; preds = %21
  %24 = add nsw i32 %22, -1
  store i32 %24, ptr %16, align 8, !tbaa !25
  %25 = icmp eq i32 %24, 0
  br i1 %25, label %26, label %Py_DECREF.exit

26:                                               ; preds = %23
  tail call void @_Py_Dealloc(ptr noundef nonnull %16) #14
  br label %Py_DECREF.exit

27:                                               ; preds = %13
  %28 = load ptr, ptr @PyExc_TypeError, align 8, !tbaa !41
  %29 = tail call ptr (ptr, ptr, ...) @PyErr_Format(ptr noundef %28, ptr noundef nonnull @.str.39, ptr noundef %0) #14
  br label %Py_DECREF.exit

Py_DECREF.exit:                                   ; preds = %26, %23, %21, %_Py_NewRef.exit, %12, %9, %7, %5, %27
  %.0 = phi ptr [ null, %27 ], [ @_Py_NoneStruct, %5 ], [ @_Py_NoneStruct, %7 ], [ @_Py_NoneStruct, %9 ], [ @_Py_NoneStruct, %12 ], [ @_Py_NoneStruct, %_Py_NewRef.exit ], [ @_Py_NoneStruct, %21 ], [ @_Py_NoneStruct, %23 ], [ @_Py_NoneStruct, %26 ]
  ret ptr %.0
}